; Function Attrs: nounwind uwtable
define ptr @l_Lean_Elab_Term_Quotation_precheck___lambda__3(ptr noundef %0, ptr readnone captures(none) %1, ptr noundef %2, ptr noundef %3, ptr noundef %4, ptr noundef %5, ptr noundef %6, ptr noundef %7, ptr noundef %8, ptr noundef %9) local_unnamed_addr #0 {
  %11 = ptrtoint ptr %0 to i64
  %12 = and i64 %11, 1
  %.not = icmp eq i64 %12, 0
  br i1 %.not, label %13, label %lean_inc.exit

13:                                               ; preds = %10
  %.val.i = load i32, ptr %0, align 4, !tbaa !4
  %14 = icmp sgt i32 %.val.i, 0
  br i1 %14, label %15, label %17, !prof !13

15:                                               ; preds = %13
  %16 = add nuw i32 %.val.i, 1
  store i32 %16, ptr %0, align 4, !tbaa !4
  br label %lean_inc.exit

17:                                               ; preds = %13
  %.not.i48 = icmp eq i32 %.val.i, 0
  br i1 %.not.i48, label %lean_inc.exit, label %18

18:                                               ; preds = %17
  tail call void @lean_inc_ref_cold(ptr noundef nonnull %0) #4
  br label %lean_inc.exit

lean_inc.exit:                                    ; preds = %18, %17, %15, %10
  %19 = tail call zeroext i8 @l_Lean_Elab_Term_Quotation_precheck_hasQuotedIdent(ptr noundef %0)
  %20 = icmp eq i8 %19, 0
  br i1 %20, label %21, label %98

21:                                               ; preds = %lean_inc.exit
  %22 = ptrtoint ptr %8 to i64
  %23 = and i64 %22, 1
  %.not49 = icmp eq i64 %23, 0
  br i1 %.not49, label %24, label %lean_dec.exit33

24:                                               ; preds = %21
  %25 = load i32, ptr %8, align 4, !tbaa !4
  %26 = icmp sgt i32 %25, 1
  br i1 %26, label %27, label %29, !prof !13

27:                                               ; preds = %24
  %28 = add nsw i32 %25, -1
  store i32 %28, ptr %8, align 4, !tbaa !4
  br label %lean_dec.exit33

29:                                               ; preds = %24
  %.not.i = icmp eq i32 %25, 0
  br i1 %.not.i, label %lean_dec.exit33, label %30

30:                                               ; preds = %29
  tail call void @lean_dec_ref_cold(ptr noundef nonnull %8) #4
  br label %lean_dec.exit33

lean_dec.exit33:                                  ; preds = %30, %29, %27, %21
  %31 = ptrtoint ptr %7 to i64
  %32 = and i64 %31, 1
  %.not50 = icmp eq i64 %32, 0
  br i1 %.not50, label %33, label %lean_dec.exit32

33:                                               ; preds = %lean_dec.exit33
  %34 = load i32, ptr %7, align 4, !tbaa !4
  %35 = icmp sgt i32 %34, 1
  br i1 %35, label %36, label %38, !prof !13

36:                                               ; preds = %33
  %37 = add nsw i32 %34, -1
  store i32 %37, ptr %7, align 4, !tbaa !4
  br label %lean_dec.exit32

38:                                               ; preds = %33
  %.not.i34 = icmp eq i32 %34, 0
  br i1 %.not.i34, label %lean_dec.exit32, label %39

39:                                               ; preds = %38
  tail call void @lean_dec_ref_cold(ptr noundef nonnull %7) #4
  br label %lean_dec.exit32

lean_dec.exit32:                                  ; preds = %39, %38, %36, %lean_dec.exit33
  %40 = ptrtoint ptr %6 to i64
  %41 = and i64 %40, 1
  %.not51 = icmp eq i64 %41, 0
  br i1 %.not51, label %42, label %lean_dec.exit31

42:                                               ; preds = %lean_dec.exit32
  %43 = load i32, ptr %6, align 4, !tbaa !4
  %44 = icmp sgt i32 %43, 1
  br i1 %44, label %45, label %47, !prof !13

45:                                               ; preds = %42
  %46 = add nsw i32 %43, -1
  store i32 %46, ptr %6, align 4, !tbaa !4
  br label %lean_dec.exit31

47:                                               ; preds = %42
  %.not.i36 = icmp eq i32 %43, 0
  br i1 %.not.i36, label %lean_dec.exit31, label %48

48:                                               ; preds = %47
  tail call void @lean_dec_ref_cold(ptr noundef nonnull %6) #4
  br label %lean_dec.exit31

lean_dec.exit31:                                  ; preds = %48, %47, %45, %lean_dec.exit32
  %49 = ptrtoint ptr %5 to i64
  %50 = and i64 %49, 1
  %.not52 = icmp eq i64 %50, 0
  br i1 %.not52, label %51, label %lean_dec.exit30

51:                                               ; preds = %lean_dec.exit31
  %52 = load i32, ptr %5, align 4, !tbaa !4
  %53 = icmp sgt i32 %52, 1
  br i1 %53, label %54, label %56, !prof !13

54:                                               ; preds = %51
  %55 = add nsw i32 %52, -1
  store i32 %55, ptr %5, align 4, !tbaa !4
  br label %lean_dec.exit30

56:                                               ; preds = %51
  %.not.i38 = icmp eq i32 %52, 0
  br i1 %.not.i38, label %lean_dec.exit30, label %57

57:                                               ; preds = %56
  tail call void @lean_dec_ref_cold(ptr noundef nonnull %5) #4
  br label %lean_dec.exit30

lean_dec.exit30:                                  ; preds = %57, %56, %54, %lean_dec.exit31
  %58 = ptrtoint ptr %4 to i64
  %59 = and i64 %58, 1
  %.not53 = icmp eq i64 %59, 0
  br i1 %.not53, label %60, label %lean_dec.exit29

60:                                               ; preds = %lean_dec.exit30
  %61 = load i32, ptr %4, align 4, !tbaa !4
  %62 = icmp sgt i32 %61, 1
  br i1 %62, label %63, label %65, !prof !13

63:                                               ; preds = %60
  %64 = add nsw i32 %61, -1
  store i32 %64, ptr %4, align 4, !tbaa !4
  br label %lean_dec.exit29

65:                                               ; preds = %60
  %.not.i40 = icmp eq i32 %61, 0
  br i1 %.not.i40, label %lean_dec.exit29, label %66

66:                                               ; preds = %65
  tail call void @lean_dec_ref_cold(ptr noundef nonnull %4) #4
  br label %lean_dec.exit29

lean_dec.exit29:                                  ; preds = %66, %65, %63, %lean_dec.exit30
  %67 = ptrtoint ptr %3 to i64
  %68 = and i64 %67, 1
  %.not54 = icmp eq i64 %68, 0
  br i1 %.not54, label %69, label %lean_dec.exit28

69:                                               ; preds = %lean_dec.exit29
  %70 = load i32, ptr %3, align 4, !tbaa !4
  %71 = icmp sgt i32 %70, 1
  br i1 %71, label %72, label %74, !prof !13

72:                                               ; preds = %69
  %73 = add nsw i32 %70, -1
  store i32 %73, ptr %3, align 4, !tbaa !4
  br label %lean_dec.exit28

74:                                               ; preds = %69
  %.not.i42 = icmp eq i32 %70, 0
  br i1 %.not.i42, label %lean_dec.exit28, label %75

75:                                               ; preds = %74
  tail call void @lean_dec_ref_cold(ptr noundef nonnull %3) #4
  br label %lean_dec.exit28

lean_dec.exit28:                                  ; preds = %75, %74, %72, %lean_dec.exit29
  %76 = ptrtoint ptr %2 to i64
  %77 = and i64 %76, 1
  %.not55 = icmp eq i64 %77, 0
  br i1 %.not55, label %78, label %lean_dec.exit27

78:                                               ; preds = %lean_dec.exit28
  %79 = load i32, ptr %2, align 4, !tbaa !4
  %80 = icmp sgt i32 %79, 1
  br i1 %80, label %81, label %83, !prof !13

81:                                               ; preds = %78
  %82 = add nsw i32 %79, -1
  store i32 %82, ptr %2, align 4, !tbaa !4
  br label %lean_dec.exit27

83:                                               ; preds = %78
  %.not.i44 = icmp eq i32 %79, 0
  br i1 %.not.i44, label %lean_dec.exit27, label %84

84:                                               ; preds = %83
  tail call void @lean_dec_ref_cold(ptr noundef nonnull %2) #4
  br label %lean_dec.exit27

lean_dec.exit27:                                  ; preds = %84, %83, %81, %lean_dec.exit28
  br i1 %.not, label %85, label %lean_dec.exit

85:                                               ; preds = %lean_dec.exit27
  %86 = load i32, ptr %0, align 4, !tbaa !4
  %87 = icmp sgt i32 %86, 1
  br i1 %87, label %88, label %90, !prof !13

88:                                               ; preds = %85
  %89 = add nsw i32 %86, -1
  store i32 %89, ptr %0, align 4, !tbaa !4
  br label %lean_dec.exit

90:                                               ; preds = %85
  %.not.i46 = icmp eq i32 %86, 0
  br i1 %.not.i46, label %lean_dec.exit, label %91

91:                                               ; preds = %90
  tail call void @lean_dec_ref_cold(ptr noundef nonnull %0) #4
  br label %lean_dec.exit

lean_dec.exit:                                    ; preds = %91, %90, %88, %lean_dec.exit27
  tail call void @lean_inc_heartbeat() #4
  %92 = tail call noalias ptr @mi_malloc_small(i64 noundef 24) #4
  %93 = icmp eq ptr %92, null
  br i1 %93, label %94, label %lean_alloc_ctor.exit

94:                                               ; preds = %lean_dec.exit
  tail call void @lean_internal_panic_out_of_memory() #5
  unreachable

lean_alloc_ctor.exit:                             ; preds = %lean_dec.exit
  %95 = getelementptr inbounds nuw i8, ptr %92, i64 4
  store i32 1, ptr %92, align 4, !tbaa !4
  store i32 131096, ptr %95, align 4
  %96 = getelementptr inbounds nuw i8, ptr %92, i64 8
  store ptr inttoptr (i64 1 to ptr), ptr %96, align 8, !tbaa !9
  %97 = getelementptr inbounds nuw i8, ptr %92, i64 16
  store ptr %9, ptr %97, align 8, !tbaa !9
  br label %100

98:                                               ; preds = %lean_inc.exit
  %99 = tail call ptr @l_Lean_Elab_Term_Quotation_precheck___lambda__2(ptr noundef %0, ptr nonnull poison, ptr noundef %2, ptr noundef %3, ptr noundef %4, ptr noundef %5, ptr noundef %6, ptr noundef %7, ptr noundef %8, ptr noundef %9)
  br label %100

100:                                              ; preds = %98, %lean_alloc_ctor.exit
  %.0 = phi ptr [ %92, %lean_alloc_ctor.exit ], [ %99, %98 ]
  ret ptr %.0
}